; Function Attrs: nounwind uwtable
define dso_local range(i64 -2147483648, 2147483648) i64 @bttidcmp(ptr noundef readonly captures(none) %0) local_unnamed_addr #0 {
  %2 = getelementptr inbounds nuw i8, ptr %0, i64 32
  %3 = load i64, ptr %2, align 8
  %4 = inttoptr i64 %3 to ptr
  %5 = getelementptr inbounds nuw i8, ptr %0, i64 48
  %6 = load i64, ptr %5, align 8
  %7 = inttoptr i64 %6 to ptr
  %8 = tail call i32 @ItemPointerCompare(ptr noundef %4, ptr noundef %7) #11
  %9 = sext i32 %8 to i64
  ret i64 %9
}